Certificate:
    Data:
        Version: 3 (0x2)
        Serial Number: 1 (0x1)
        Signature Algorithm: sha256WithRSAEncryption
        Issuer: C=TH, ST=Bangkok, L=Chatuchak, O=Kasetsart University/emailAddress=info@ku.ac.th, CN=KUWIN
        Validity
            Not Before: Oct 22 11:54:23 2021 GMT
            Not After : Oct 17 11:54:23 2022 GMT
        Subject: C=TH, ST=Bangkok, O=Kasetsart University, CN=KUWIN/emailAddress=info@ku.ac.th
        Subject Public Key Info:
            Public Key Algorithm: rsaEncryption
                RSA Public-Key: (2048 bit)
                Modulus:
                    00:ca:d2:b9:7d:c0:d9:26:46:49:d6:50:c2:82:dd:
                    1c:a3:82:8e:1f:41:ae:61:67:32:9f:43:79:0c:a7:
                    ae:b3:cf:16:c1:14:34:a1:a0:88:43:b3:ea:31:8e:
                    6f:23:71:50:40:4b:f4:a3:ad:9d:2d:5f:2b:5d:18:
                    98:a3:62:51:25:ca:4d:9f:d0:36:6b:72:6d:57:75:
                    37:4f:c6:c3:cf:78:a6:2c:2d:f8:19:a6:24:80:97:
                    7d:76:36:d2:27:b8:ec:74:e8:c4:ae:08:64:83:4c:
                    5a:27:91:4d:17:6a:02:30:45:7f:ab:73:1e:ae:e1:
                    29:d8:5a:b2:af:fe:5b:28:79:2c:7e:c5:20:a5:28:
                    e2:35:13:1f:e3:43:2f:65:eb:1b:30:fc:cb:cf:c7:
                    15:2c:1e:4c:e1:6e:cb:b6:25:21:e9:64:97:cd:78:
                    e4:39:a5:4e:a4:d7:86:d4:6a:07:6b:af:02:ad:b1:
                    be:46:8c:a1:2d:59:2f:e9:b7:92:80:b2:0a:73:47:
                    ff:78:e3:a9:d8:02:16:96:08:60:f4:2a:cb:90:e8:
                    9f:00:8a:d8:4f:5d:cb:08:8a:eb:e5:cb:5f:c6:ea:
                    dd:32:bc:65:57:62:87:11:cd:8b:64:64:0c:c9:a4:
                    00:de:05:18:15:79:34:25:af:d8:aa:c5:4e:76:da:
                    da:4f
                Exponent: 65537 (0x10001)
        X509v3 extensions:
            X509v3 Extended Key Usage: 
                TLS Web Server Authentication
            X509v3 CRL Distribution Points: 

                Full Name:
                  URI:http://www.example.com/example_ca.crl

    Signature Algorithm: sha256WithRSAEncryption
         8a:cf:3c:d3:27:c0:7c:15:3f:9c:6a:a9:08:71:90:4e:d0:d3:
         d8:18:93:73:58:1f:5d:f0:80:2f:8d:73:a3:da:39:10:60:2e:
         c5:f2:74:4d:9b:31:95:f6:5a:0f:84:2e:37:85:9a:d5:88:33:
         14:68:de:b0:45:be:0b:4f:77:28:65:65:de:e5:66:1e:87:c3:
         58:9d:c8:e5:32:5d:8d:e5:58:60:07:1c:37:f3:3d:f5:fa:00:
         2e:a0:e4:2e:c4:5d:8a:2d:31:48:b2:78:c8:9a:bd:02:ba:6d:
         7e:0c:58:4b:76:a7:69:ee:21:30:5b:a7:eb:de:2c:9b:ef:d9:
         2f:76:7f:55:65:cf:37:8b:ec:de:a5:26:53:a6:20:dc:08:a3:
         3a:3e:19:c3:58:08:ca:49:63:79:60:1c:47:9c:cb:25:92:1c:
         86:4c:36:20:a8:2b:9e:c4:8f:bf:01:19:96:52:53:ea:82:ae:
         82:de:ba:c2:a9:35:90:c5:40:66:e7:1e:1e:1e:18:2c:32:48:
         0c:a6:5a:29:6f:04:8e:74:1a:f1:a9:53:fa:fa:f0:5f:b7:f4:
         5d:e8:f7:20:64:5e:b8:51:99:e2:43:86:f4:b5:62:c0:a9:5a:
         a2:50:00:47:a1:71:93:86:77:3f:52:15:6d:88:c2:83:18:ba:
         19:2c:b1:55
-----BEGIN CERTIFICATE-----
MIIDtzCCAp+gAwIBAgIBATANBgkqhkiG9w0BAQsFADCBgDELMAkGA1UEBhMCVEgx
EDAOBgNVBAgMB0Jhbmdrb2sxEjAQBgNVBAcMCUNoYXR1Y2hhazEdMBsGA1UECgwU
S2FzZXRzYXJ0IFVuaXZlcnNpdHkxHDAaBgkqhkiG9w0BCQEWDWluZm9Aa3UuYWMu
dGgxDjAMBgNVBAMMBUtVV0lOMB4XDTIxMTAyMjExNTQyM1oXDTIyMTAxNzExNTQy
M1owbDELMAkGA1UEBhMCVEgxEDAOBgNVBAgMB0Jhbmdrb2sxHTAbBgNVBAoMFEth
c2V0c2FydCBVbml2ZXJzaXR5MQ4wDAYDVQQDDAVLVVdJTjEcMBoGCSqGSIb3DQEJ
ARYNaW5mb0BrdS5hYy50aDCCASIwDQYJKoZIhvcNAQEBBQADggEPADCCAQoCggEB
AMrSuX3A2SZGSdZQwoLdHKOCjh9BrmFnMp9DeQynrrPPFsEUNKGgiEOz6jGObyNx
UEBL9KOtnS1fK10YmKNiUSXKTZ/QNmtybVd1N0/Gw894piwt+BmmJICXfXY20ie4
7HToxK4IZINMWieRTRdqAjBFf6tzHq7hKdhasq/+Wyh5LH7FIKUo4jUTH+NDL2Xr
GzD8y8/HFSweTOFuy7YlIelkl8145DmlTqTXhtRqB2uvAq2xvkaMoS1ZL+m3koCy
CnNH/3jjqdgCFpYIYPQqy5DonwCK2E9dywiK6+XLX8bq3TK8ZVdihxHNi2RkDMmk
AN4FGBV5NCWv2KrFTnba2k8CAwEAAaNPME0wEwYDVR0lBAwwCgYIKwYBBQUHAwEw
NgYDVR0fBC8wLTAroCmgJ4YlaHR0cDovL3d3dy5leGFtcGxlLmNvbS9leGFtcGxl
X2NhLmNybDANBgkqhkiG9w0BAQsFAAOCAQEAis880yfAfBU/nGqpCHGQTtDT2BiT
c1gfXfCAL41zo9o5EGAuxfJ0TZsxlfZaD4QuN4Wa1YgzFGjesEW+C093KGVl3uVm
HofDWJ3I5TJdjeVYYAccN/M99foALqDkLsRdii0xSLJ4yJq9ArptfgxYS3anae4h
MFun694sm+/ZL3Z/VWXPN4vs3qUmU6Yg3AijOj4Zw1gIykljeWAcR5zLJZIchkw2
IKgrnsSPvwEZllJT6oKugt66wqk1kMVAZuceHh4YLDJIDKZaKW8EjnQa8alT+vrw
X7f0Xej3IGReuFGZ4kOG9LViwKlaolAAR6Fxk4Z3P1IVbYjCgxi6GSyxVQ==
-----END CERTIFICATE-----
