Certificate:
    Data:
        Version: 3 (0x2)
        Serial Number: 2 (0x2)
        Signature Algorithm: sha256WithRSAEncryption
        Issuer: C=FR, ST=Radius, L=Somewhere, O=Example Inc./emailAddress=admin@example.org, CN=Example Certificate Authority
        Validity
            Not Before: Oct 15 06:41:02 2021 GMT
            Not After : Dec 14 06:41:02 2021 GMT
        Subject: C=FR, ST=Radius, O=Example Inc., CN=user@example.org/emailAddress=user@example.org
        Subject Public Key Info:
            Public Key Algorithm: rsaEncryption
                RSA Public-Key: (2048 bit)
                Modulus:
                    00:99:70:ea:9b:27:9b:10:40:53:27:76:ee:eb:25:
                    d8:20:d1:8e:ea:ab:e4:d5:b6:f3:e9:b2:3a:2e:5f:
                    e1:70:68:32:39:12:5a:79:65:f4:37:f2:e7:44:7d:
                    52:11:99:0d:fc:0c:75:77:dc:13:09:0d:fa:a0:e2:
                    da:3f:0e:8c:53:a9:47:55:55:82:ce:2f:01:04:c1:
                    e3:84:95:9b:3a:a6:55:01:cc:05:8a:a2:37:e2:cf:
                    95:2c:8e:6f:57:85:21:b6:a4:59:bb:1f:2c:77:40:
                    c1:f5:7b:6c:da:a7:31:db:2f:d1:05:be:d3:16:af:
                    ec:13:24:51:ed:4f:ba:73:5f:94:89:65:c1:97:3f:
                    c1:3c:05:54:0c:bc:2c:18:c3:66:d6:fb:ce:55:0e:
                    0b:6f:a3:83:cd:f7:8b:63:f9:7a:f5:f1:1f:07:15:
                    53:13:d5:f0:82:ca:61:29:86:66:79:b6:3e:59:53:
                    88:b0:c7:8b:c1:3d:e3:31:f7:df:62:72:ba:ad:60:
                    95:0f:37:6e:e8:d7:5d:1e:72:eb:bf:ac:1e:f7:d5:
                    b3:9e:6e:c2:57:ba:cb:5d:00:8a:86:d9:72:9e:40:
                    b6:56:ca:a4:51:eb:1f:14:6a:72:33:85:4d:95:05:
                    09:23:52:c0:11:54:36:55:99:e4:9d:d4:b8:cd:66:
                    45:0d
                Exponent: 65537 (0x10001)
        X509v3 extensions:
            X509v3 Extended Key Usage: 
                TLS Web Client Authentication
            X509v3 CRL Distribution Points: 

                Full Name:
                  URI:http://www.example.com/example_ca.crl

    Signature Algorithm: sha256WithRSAEncryption
         4c:fc:2d:e1:f4:8e:2b:fd:cd:19:40:6b:26:4c:cf:40:a5:16:
         28:96:4b:6d:54:48:e5:26:4f:90:37:14:e7:d9:99:a9:da:94:
         5d:ce:36:d9:5c:27:8f:78:c6:cc:4b:fd:c7:e4:4f:a4:b4:29:
         8b:63:a1:7a:ad:fb:3b:81:4e:88:53:dc:f7:15:fc:e2:ec:2d:
         99:e5:5d:02:fe:15:b5:3b:43:01:28:13:06:84:e1:ab:9d:88:
         d5:87:79:e6:7c:7b:ea:97:fb:68:e4:e4:67:e4:f8:15:72:0a:
         71:28:eb:17:61:f5:be:51:b9:1c:10:19:fb:40:5b:ff:02:c8:
         3c:96:c3:73:c0:56:ef:7c:cd:88:16:ec:2d:3c:3a:d4:16:40:
         7e:36:d8:2a:48:1f:56:a7:46:98:28:7a:6a:9d:5b:94:37:e8:
         6d:e4:16:2d:59:c1:75:0d:17:a9:38:be:43:ce:59:56:bc:11:
         f7:c8:06:bf:5b:5f:7f:3e:4c:33:b0:de:ac:e7:e8:8f:fd:34:
         03:60:7a:2c:ab:75:f9:f1:bd:fe:33:79:be:20:8f:99:4d:30:
         cc:a0:66:7b:51:c4:b8:a5:d9:c7:6d:3a:48:3e:c9:7d:36:8c:
         3e:2c:b9:46:c6:a0:41:67:ad:8d:7b:cf:bb:62:76:51:9a:e5:
         de:e3:93:0f
-----BEGIN CERTIFICATE-----
MIIDzzCCAregAwIBAgIBAjANBgkqhkiG9w0BAQsFADCBkzELMAkGA1UEBhMCRlIx
DzANBgNVBAgMBlJhZGl1czESMBAGA1UEBwwJU29tZXdoZXJlMRUwEwYDVQQKDAxF
eGFtcGxlIEluYy4xIDAeBgkqhkiG9w0BCQEWEWFkbWluQGV4YW1wbGUub3JnMSYw
JAYDVQQDDB1FeGFtcGxlIENlcnRpZmljYXRlIEF1dGhvcml0eTAeFw0yMTEwMTUw
NjQxMDJaFw0yMTEyMTQwNjQxMDJaMHExCzAJBgNVBAYTAkZSMQ8wDQYDVQQIDAZS
YWRpdXMxFTATBgNVBAoMDEV4YW1wbGUgSW5jLjEZMBcGA1UEAwwQdXNlckBleGFt
cGxlLm9yZzEfMB0GCSqGSIb3DQEJARYQdXNlckBleGFtcGxlLm9yZzCCASIwDQYJ
KoZIhvcNAQEBBQADggEPADCCAQoCggEBAJlw6psnmxBAUyd27usl2CDRjuqr5NW2
8+myOi5f4XBoMjkSWnll9Dfy50R9UhGZDfwMdXfcEwkN+qDi2j8OjFOpR1VVgs4v
AQTB44SVmzqmVQHMBYqiN+LPlSyOb1eFIbakWbsfLHdAwfV7bNqnMdsv0QW+0xav
7BMkUe1PunNflIllwZc/wTwFVAy8LBjDZtb7zlUOC2+jg833i2P5evXxHwcVUxPV
8ILKYSmGZnm2PllTiLDHi8E94zH332Jyuq1glQ83bujXXR5y67+sHvfVs55uwle6
y10AiobZcp5AtlbKpFHrHxRqcjOFTZUFCSNSwBFUNlWZ5J3UuM1mRQ0CAwEAAaNP
ME0wEwYDVR0lBAwwCgYIKwYBBQUHAwIwNgYDVR0fBC8wLTAroCmgJ4YlaHR0cDov
L3d3dy5leGFtcGxlLmNvbS9leGFtcGxlX2NhLmNybDANBgkqhkiG9w0BAQsFAAOC
AQEATPwt4fSOK/3NGUBrJkzPQKUWKJZLbVRI5SZPkDcU59mZqdqUXc422Vwnj3jG
zEv9x+RPpLQpi2Oheq37O4FOiFPc9xX84uwtmeVdAv4VtTtDASgTBoThq52I1Yd5
5nx76pf7aOTkZ+T4FXIKcSjrF2H1vlG5HBAZ+0Bb/wLIPJbDc8BW73zNiBbsLTw6
1BZAfjbYKkgfVqdGmCh6ap1blDfobeQWLVnBdQ0XqTi+Q85ZVrwR98gGv1tffz5M
M7DerOfoj/00A2B6LKt1+fG9/jN5viCPmU0wzKBme1HEuKXZx206SD7JfTaMPiy5
RsagQWetjXvPu2J2UZrl3uOTDw==
-----END CERTIFICATE-----
